
secure_curl:	file format elf64-x86-64

Disassembly of section .init:

0000000000001000 <_init>:
    1000: f3 0f 1e fa                  	endbr64
    1004: 48 83 ec 08                  	subq	$0x8, %rsp
    1008: 48 8b 05 d9 2f 00 00         	movq	0x2fd9(%rip), %rax      # 0x3fe8 <_GLOBAL_OFFSET_TABLE_+0x28>
    100f: 48 85 c0                     	testq	%rax, %rax
    1012: 74 02                        	je	0x1016 <_init+0x16>
    1014: ff d0                        	callq	*%rax
    1016: 48 83 c4 08                  	addq	$0x8, %rsp
    101a: c3                           	retq

Disassembly of section .plt:

0000000000001020 <.plt>:
    1020: ff 35 a2 2f 00 00            	pushq	0x2fa2(%rip)            # 0x3fc8 <_GLOBAL_OFFSET_TABLE_+0x8>
    1026: ff 25 a4 2f 00 00            	jmpq	*0x2fa4(%rip)           # 0x3fd0 <_GLOBAL_OFFSET_TABLE_+0x10>
    102c: 0f 1f 40 00                  	nopl	(%rax)

Disassembly of section .plt.got:

0000000000001030 <.plt.got>:
    1030: f3 0f 1e fa                  	endbr64

0000000000001034 <__cxa_finalize@plt>:
    1034: ff 25 be 2f 00 00            	jmpq	*0x2fbe(%rip)           # 0x3ff8 <_GLOBAL_OFFSET_TABLE_+0x38>
    103a: 66 0f 1f 44 00 00            	nopw	(%rax,%rax)

Disassembly of section .text:

0000000000001040 <_start>:
    1040: f3 0f 1e fa                  	endbr64
    1044: 31 ed                        	xorl	%ebp, %ebp
    1046: 49 89 d1                     	movq	%rdx, %r9
    1049: 5e                           	popq	%rsi
    104a: 48 89 e2                     	movq	%rsp, %rdx
    104d: 48 83 e4 f0                  	andq	$-0x10, %rsp
    1051: 50                           	pushq	%rax
    1052: 54                           	pushq	%rsp
    1053: 45 31 c0                     	xorl	%r8d, %r8d
    1056: 31 c9                        	xorl	%ecx, %ecx
    1058: 48 8d 3d 26 01 00 00         	leaq	0x126(%rip), %rdi       # 0x1185 <main>
    105f: ff 15 73 2f 00 00            	callq	*0x2f73(%rip)           # 0x3fd8 <_GLOBAL_OFFSET_TABLE_+0x18>
    1065: f4                           	hlt
    1066: 66 2e 0f 1f 84 00 00 00 00 00	nopw	%cs:(%rax,%rax)

0000000000001070 <deregister_tm_clones>:
    1070: 48 8d 3d 99 2f 00 00         	leaq	0x2f99(%rip), %rdi      # 0x4010 <completed.0>
    1077: 48 8d 05 92 2f 00 00         	leaq	0x2f92(%rip), %rax      # 0x4010 <completed.0>
    107e: 48 39 f8                     	cmpq	%rdi, %rax
    1081: 74 15                        	je	0x1098 <deregister_tm_clones+0x28>
    1083: 48 8b 05 56 2f 00 00         	movq	0x2f56(%rip), %rax      # 0x3fe0 <_GLOBAL_OFFSET_TABLE_+0x20>
    108a: 48 85 c0                     	testq	%rax, %rax
    108d: 74 09                        	je	0x1098 <deregister_tm_clones+0x28>
    108f: ff e0                        	jmpq	*%rax
    1091: 0f 1f 80 00 00 00 00         	nopl	(%rax)
    1098: c3                           	retq
    1099: 0f 1f 80 00 00 00 00         	nopl	(%rax)

00000000000010a0 <register_tm_clones>:
    10a0: 48 8d 3d 69 2f 00 00         	leaq	0x2f69(%rip), %rdi      # 0x4010 <completed.0>
    10a7: 48 8d 35 62 2f 00 00         	leaq	0x2f62(%rip), %rsi      # 0x4010 <completed.0>
    10ae: 48 29 fe                     	subq	%rdi, %rsi
    10b1: 48 89 f0                     	movq	%rsi, %rax
    10b4: 48 c1 ee 3f                  	shrq	$0x3f, %rsi
    10b8: 48 c1 f8 03                  	sarq	$0x3, %rax
    10bc: 48 01 c6                     	addq	%rax, %rsi
    10bf: 48 d1 fe                     	sarq	%rsi
    10c2: 74 14                        	je	0x10d8 <register_tm_clones+0x38>
    10c4: 48 8b 05 25 2f 00 00         	movq	0x2f25(%rip), %rax      # 0x3ff0 <_GLOBAL_OFFSET_TABLE_+0x30>
    10cb: 48 85 c0                     	testq	%rax, %rax
    10ce: 74 08                        	je	0x10d8 <register_tm_clones+0x38>
    10d0: ff e0                        	jmpq	*%rax
    10d2: 66 0f 1f 44 00 00            	nopw	(%rax,%rax)
    10d8: c3                           	retq
    10d9: 0f 1f 80 00 00 00 00         	nopl	(%rax)

00000000000010e0 <__do_global_dtors_aux>:
    10e0: f3 0f 1e fa                  	endbr64
    10e4: 80 3d 25 2f 00 00 00         	cmpb	$0x0, 0x2f25(%rip)      # 0x4010 <completed.0>
    10eb: 75 2b                        	jne	0x1118 <__do_global_dtors_aux+0x38>
    10ed: 55                           	pushq	%rbp
    10ee: 48 83 3d 02 2f 00 00 00      	cmpq	$0x0, 0x2f02(%rip)      # 0x3ff8 <_GLOBAL_OFFSET_TABLE_+0x38>
    10f6: 48 89 e5                     	movq	%rsp, %rbp
    10f9: 74 0c                        	je	0x1107 <__do_global_dtors_aux+0x27>
    10fb: 48 8b 3d 06 2f 00 00         	movq	0x2f06(%rip), %rdi      # 0x4008 <__dso_handle>
    1102: e8 29 ff ff ff               	callq	0x1030 <.plt.got>
    1107: e8 64 ff ff ff               	callq	0x1070 <deregister_tm_clones>
    110c: c6 05 fd 2e 00 00 01         	movb	$0x1, 0x2efd(%rip)      # 0x4010 <completed.0>
    1113: 5d                           	popq	%rbp
    1114: c3                           	retq
    1115: 0f 1f 00                     	nopl	(%rax)
    1118: c3                           	retq
    1119: 0f 1f 80 00 00 00 00         	nopl	(%rax)

0000000000001120 <frame_dummy>:
    1120: f3 0f 1e fa                  	endbr64
    1124: e9 77 ff ff ff               	jmp	0x10a0 <register_tm_clones>

0000000000001129 <secure_curl_io>:
    1129: f3 0f 1e fa                  	endbr64
    112d: 55                           	pushq	%rbp
    112e: 48 89 e5                     	movq	%rsp, %rbp
    1131: 48 83 ec 10                  	subq	$0x10, %rsp
    1135: 48 89 7d f8                  	movq	%rdi, -0x8(%rbp)
    1139: 48 83 7d f8 00               	cmpq	$0x0, -0x8(%rbp)
    113e: 74 42                        	je	0x1182 <secure_curl_io+0x59>
    1140: 48 8b 45 f8                  	movq	-0x8(%rbp), %rax
    1144: ba 01 00 00 00               	movl	$0x1, %edx
    1149: be 40 00 00 00               	movl	$0x40, %esi
    114e: 48 89 c7                     	movq	%rax, %rdi
    1151: b8 00 00 00 00               	movl	$0x0, %eax
    1156: e8 6d 00 00 00               	callq	0x11c8 <curl_easy_setopt>
    115b: 48 8b 45 f8                  	movq	-0x8(%rbp), %rax
    115f: ba 02 00 00 00               	movl	$0x2, %edx
    1164: be 51 00 00 00               	movl	$0x51, %esi
    1169: 48 89 c7                     	movq	%rax, %rdi
    116c: b8 00 00 00 00               	movl	$0x0, %eax
    1171: e8 52 00 00 00               	callq	0x11c8 <curl_easy_setopt>
    1176: 48 8b 45 f8                  	movq	-0x8(%rbp), %rax
    117a: 48 89 c7                     	movq	%rax, %rdi
    117d: e8 a6 00 00 00               	callq	0x1228 <curl_easy_perform>
    1182: 90                           	nop
    1183: c9                           	leave
    1184: c3                           	retq

0000000000001185 <main>:
    1185: f3 0f 1e fa                  	endbr64
    1189: 55                           	pushq	%rbp
    118a: 48 89 e5                     	movq	%rsp, %rbp
    118d: 48 83 ec 10                  	subq	$0x10, %rsp
    1191: e8 23 00 00 00               	callq	0x11b9 <curl_easy_init>
    1196: 48 89 45 f8                  	movq	%rax, -0x8(%rbp)
    119a: 48 8b 45 f8                  	movq	-0x8(%rbp), %rax
    119e: 48 89 c7                     	movq	%rax, %rdi
    11a1: e8 83 ff ff ff               	callq	0x1129 <secure_curl_io>
    11a6: 48 8b 45 f8                  	movq	-0x8(%rbp), %rax
    11aa: 48 89 c7                     	movq	%rax, %rdi
    11ad: e8 89 00 00 00               	callq	0x123b <curl_easy_cleanup>
    11b2: b8 00 00 00 00               	movl	$0x0, %eax
    11b7: c9                           	leave
    11b8: c3                           	retq

00000000000011b9 <curl_easy_init>:
    11b9: f3 0f 1e fa                  	endbr64
    11bd: 55                           	pushq	%rbp
    11be: 48 89 e5                     	movq	%rsp, %rbp
    11c1: b8 01 00 00 00               	movl	$0x1, %eax
    11c6: 5d                           	popq	%rbp
    11c7: c3                           	retq

00000000000011c8 <curl_easy_setopt>:
    11c8: f3 0f 1e fa                  	endbr64
    11cc: 55                           	pushq	%rbp
    11cd: 48 89 e5                     	movq	%rsp, %rbp
    11d0: 48 83 ec 48                  	subq	$0x48, %rsp
    11d4: 48 89 bd 48 ff ff ff         	movq	%rdi, -0xb8(%rbp)
    11db: 89 b5 44 ff ff ff            	movl	%esi, -0xbc(%rbp)
    11e1: 48 89 95 60 ff ff ff         	movq	%rdx, -0xa0(%rbp)
    11e8: 48 89 8d 68 ff ff ff         	movq	%rcx, -0x98(%rbp)
    11ef: 4c 89 85 70 ff ff ff         	movq	%r8, -0x90(%rbp)
    11f6: 4c 89 8d 78 ff ff ff         	movq	%r9, -0x88(%rbp)
    11fd: 84 c0                        	testb	%al, %al
    11ff: 74 20                        	je	0x1221 <curl_easy_setopt+0x59>
    1201: 0f 29 45 80                  	movaps	%xmm0, -0x80(%rbp)
    1205: 0f 29 4d 90                  	movaps	%xmm1, -0x70(%rbp)
    1209: 0f 29 55 a0                  	movaps	%xmm2, -0x60(%rbp)
    120d: 0f 29 5d b0                  	movaps	%xmm3, -0x50(%rbp)
    1211: 0f 29 65 c0                  	movaps	%xmm4, -0x40(%rbp)
    1215: 0f 29 6d d0                  	movaps	%xmm5, -0x30(%rbp)
    1219: 0f 29 75 e0                  	movaps	%xmm6, -0x20(%rbp)
    121d: 0f 29 7d f0                  	movaps	%xmm7, -0x10(%rbp)
    1221: b8 00 00 00 00               	movl	$0x0, %eax
    1226: c9                           	leave
    1227: c3                           	retq

0000000000001228 <curl_easy_perform>:
    1228: f3 0f 1e fa                  	endbr64
    122c: 55                           	pushq	%rbp
    122d: 48 89 e5                     	movq	%rsp, %rbp
    1230: 48 89 7d f8                  	movq	%rdi, -0x8(%rbp)
    1234: b8 00 00 00 00               	movl	$0x0, %eax
    1239: 5d                           	popq	%rbp
    123a: c3                           	retq

000000000000123b <curl_easy_cleanup>:
    123b: f3 0f 1e fa                  	endbr64
    123f: 55                           	pushq	%rbp
    1240: 48 89 e5                     	movq	%rsp, %rbp
    1243: 48 89 7d f8                  	movq	%rdi, -0x8(%rbp)
    1247: 90                           	nop
    1248: 5d                           	popq	%rbp
    1249: c3                           	retq

Disassembly of section .fini:

000000000000124c <_fini>:
    124c: f3 0f 1e fa                  	endbr64
    1250: 48 83 ec 08                  	subq	$0x8, %rsp
    1254: 48 83 c4 08                  	addq	$0x8, %rsp
    1258: c3                           	retq
